; Function Attrs: mustprogress nofree norecurse nosync nounwind willreturn memory(read, inaccessiblemem: none) uwtable
define hidden noundef zeroext i1 @_ZNK21quantifier_macro_info23unary_function_fragmentEv(ptr nocapture noundef nonnull readonly align 8 dereferenceable(88) %this) local_unnamed_addr #5 align 2 {
entry:
  %m_ng_decls = getelementptr inbounds i8, ptr %this, i64 40
  %m_size.i = getelementptr inbounds i8, ptr %this, i64 52
  %0 = load i32, ptr %m_size.i, align 4
  %cmp = icmp ugt i32 %0, 1
  br i1 %cmp, label %return, label %if.end

if.end:                                           ; preds = %entry
  %cmp2 = icmp eq i32 %0, 0
  br i1 %cmp2, label %return, label %if.end4

if.end4:                                          ; preds = %if.end
  %1 = load ptr, ptr %m_ng_decls, align 8
  %m_capacity.i = getelementptr inbounds i8, ptr %this, i64 48
  %2 = load i32, ptr %m_capacity.i, align 8
  %idx.ext.i = zext i32 %2 to i64
  %add.ptr.i = getelementptr inbounds %class.obj_hash_entry, ptr %1, i64 %idx.ext.i
  %cmp.not2.i.i.i = icmp eq i32 %2, 0
  br i1 %cmp.not2.i.i.i, label %_ZNK14core_hashtableI14obj_hash_entryI9func_declE12obj_ptr_hashIS1_E6ptr_eqIS1_EE5beginEv.exit, label %land.rhs.i.i.i

land.rhs.i.i.i:                                   ; preds = %if.end4, %while.body.i.i.i
  %retval.sroa.0.0.i = phi ptr [ %incdec.ptr.i.i.i, %while.body.i.i.i ], [ %1, %if.end4 ]
  %3 = load ptr, ptr %retval.sroa.0.0.i, align 8
  %switch.i.i.i = icmp ult ptr %3, inttoptr (i64 2 to ptr)
  br i1 %switch.i.i.i, label %while.body.i.i.i, label %_ZNK14core_hashtableI14obj_hash_entryI9func_declE12obj_ptr_hashIS1_E6ptr_eqIS1_EE5beginEv.exit

while.body.i.i.i:                                 ; preds = %land.rhs.i.i.i
  %incdec.ptr.i.i.i = getelementptr inbounds i8, ptr %retval.sroa.0.0.i, i64 8
  %cmp.not.i.i.i = icmp eq ptr %incdec.ptr.i.i.i, %add.ptr.i
  br i1 %cmp.not.i.i.i, label %_ZNK14core_hashtableI14obj_hash_entryI9func_declE12obj_ptr_hashIS1_E6ptr_eqIS1_EE5beginEv.exit, label %land.rhs.i.i.i, !llvm.loop !8

_ZNK14core_hashtableI14obj_hash_entryI9func_declE12obj_ptr_hashIS1_E6ptr_eqIS1_EE5beginEv.exit: ; preds = %land.rhs.i.i.i, %while.body.i.i.i, %if.end4
  %retval.sroa.0.1.i = phi ptr [ %1, %if.end4 ], [ %add.ptr.i, %while.body.i.i.i ], [ %retval.sroa.0.0.i, %land.rhs.i.i.i ]
  %4 = load ptr, ptr %retval.sroa.0.1.i, align 8
  %m_arity.i = getelementptr inbounds i8, ptr %4, i64 32
  %5 = load i32, ptr %m_arity.i, align 8
  %cmp9 = icmp eq i32 %5, 1
  br label %return

return:                                           ; preds = %if.end, %entry, %_ZNK14core_hashtableI14obj_hash_entryI9func_declE12obj_ptr_hashIS1_E6ptr_eqIS1_EE5beginEv.exit
  %retval.0 = phi i1 [ %cmp9, %_ZNK14core_hashtableI14obj_hash_entryI9func_declE12obj_ptr_hashIS1_E6ptr_eqIS1_EE5beginEv.exit ], [ false, %entry ], [ true, %if.end ]
  ret i1 %retval.0
}